; Function Attrs: nounwind uwtable
define range(i32 -1, 1) i32 @ark_MRIStepInnerResetAccumulatedError(ptr noundef %0) #0 {
  %2 = alloca ptr, align 8
  call void @llvm.lifetime.start.p0(i64 8, ptr nonnull %2) #16
  %3 = call i32 @MRIStepInnerStepper_GetContent(ptr noundef %0, ptr noundef nonnull %2) #16
  %.not = icmp eq i32 %3, 0
  br i1 %.not, label %4, label %8

4:                                                ; preds = %1
  %5 = load ptr, ptr %2, align 8, !tbaa !157
  %6 = call i32 @ARKodeResetAccumulatedError(ptr noundef %5) #16
  %7 = icmp ne i32 %6, 0
  %. = sext i1 %7 to i32
  br label %8

8:                                                ; preds = %4, %1
  %.0 = phi i32 [ -1, %1 ], [ %., %4 ]
  call void @llvm.lifetime.end.p0(i64 8, ptr nonnull %2) #16
  ret i32 %.0
}